target datalayout = "e-m:e-p270:32:32-p271:32:32-p272:64:64-i64:64-i128:128-f80:128-n8:16:32:64-S128"
target triple = "x86_64-pc-linux-gnu"

%class.LIR_Opr = type { i64 }
%class.LIRAccess = type { ptr, i64, %class.LIRAddressOpr, %class.LIRAddressOpr, i8, %class.LIR_Opr, ptr, ptr }
%class.LIRAddressOpr = type { ptr, %class.LIR_Opr }

; Function Attrs: mustprogress nounwind uwtable
define linkonce_odr hidden noundef zeroext i8 @_ZNK9LIRAccess4typeEv(ptr noundef nonnull align 8 dereferenceable(80) %0) #1 comdat align 2 {
  %2 = alloca ptr, align 8
  store ptr %0, ptr %2, align 8
  %3 = load ptr, ptr %2, align 8
  %4 = getelementptr inbounds %class.LIRAccess, ptr %3, i32 0, i32 4
  %5 = load i8, ptr %4, align 8
  ret i8 %5
}

; Function Attrs: mustprogress nounwind uwtable
define linkonce_odr hidden noundef i64 @_ZNK9LIRAccess10decoratorsEv(ptr noundef nonnull align 8 dereferenceable(80) %0) #1 comdat align 2 {
  %2 = alloca ptr, align 8
  store ptr %0, ptr %2, align 8
  %3 = load ptr, ptr %2, align 8
  %4 = getelementptr inbounds %class.LIRAccess, ptr %3, i32 0, i32 1
  %5 = load i64, ptr %4, align 8
  ret i64 %5
}

; Function Attrs: mustprogress nounwind uwtable
define internal noundef zeroext i1 @_ZL14barrier_neededR9LIRAccess(ptr noundef nonnull align 8 dereferenceable(80) %0) #1 {
  %2 = alloca ptr, align 8
  store ptr %0, ptr %2, align 8
  %3 = load ptr, ptr %2, align 8
  %4 = call noundef i64 @_ZNK9LIRAccess10decoratorsEv(ptr noundef nonnull align 8 dereferenceable(80) %3)
  %5 = load ptr, ptr %2, align 8
  %6 = call noundef zeroext i8 @_ZNK9LIRAccess4typeEv(ptr noundef nonnull align 8 dereferenceable(80) %5)
  %7 = call noundef zeroext i1 @_ZN11XBarrierSet14barrier_neededEm9BasicType(i64 noundef %4, i8 noundef zeroext %6)
  ret i1 %7
}

; Function Attrs: mustprogress nounwind uwtable
define hidden void @_ZN13XBarrierSetC116load_at_resolvedER9LIRAccess7LIR_Opr(ptr noundef nonnull align 8 dereferenceable(24) %0, ptr noundef nonnull align 8 dereferenceable(80) %1, i64 %2) unnamed_addr #1 align 2 {
  %4 = alloca %class.LIR_Opr, align 8
  %5 = alloca ptr, align 8
  %6 = alloca ptr, align 8
  %7 = alloca %class.LIR_Opr, align 8
  %8 = alloca %class.LIR_Opr, align 8
  %9 = getelementptr inbounds %class.LIR_Opr, ptr %4, i32 0, i32 0
  store i64 %2, ptr %9, align 8
  store ptr %0, ptr %5, align 8
  store ptr %1, ptr %6, align 8
  %10 = load ptr, ptr %5, align 8
  %11 = load ptr, ptr %6, align 8
  call void @llvm.memcpy.p0.p0.i64(ptr align 8 %7, ptr align 8 %4, i64 8, i1 false)
  %12 = getelementptr inbounds %class.LIR_Opr, ptr %7, i32 0, i32 0
  %13 = load i64, ptr %12, align 8
  call void @_ZN12BarrierSetC116load_at_resolvedER9LIRAccess7LIR_Opr(ptr noundef nonnull align 8 dereferenceable(8) %10, ptr noundef nonnull align 8 dereferenceable(80) %11, i64 %13)
  %14 = load ptr, ptr %6, align 8
  %15 = call noundef zeroext i1 @_ZL14barrier_neededR9LIRAccess(ptr noundef nonnull align 8 dereferenceable(80) %14)
  br i1 %15, label %16, label %20

16:                                               ; preds = %3
  %17 = load ptr, ptr %6, align 8
  call void @llvm.memcpy.p0.p0.i64(ptr align 8 %8, ptr align 8 %4, i64 8, i1 false)
  %18 = getelementptr inbounds %class.LIR_Opr, ptr %8, i32 0, i32 0
  %19 = load i64, ptr %18, align 8
  call void @_ZNK13XBarrierSetC112load_barrierER9LIRAccess7LIR_Opr(ptr noundef nonnull align 8 dereferenceable(24) %10, ptr noundef nonnull align 8 dereferenceable(80) %17, i64 %19)
  br label %20

20:                                               ; preds = %16, %3
  ret void
}