; Function Attrs: mustprogress nounwind uwtable
define hidden void @_ZN13XBarrierSetC116load_at_resolvedER9LIRAccess7LIR_Opr(ptr noundef nonnull align 8 dereferenceable(24) %0, ptr noundef nonnull align 8 dereferenceable(80) %1, i64 %2) unnamed_addr #0 align 2 {
  tail call void @_ZN12BarrierSetC116load_at_resolvedER9LIRAccess7LIR_Opr(ptr noundef nonnull align 8 dereferenceable(8) %0, ptr noundef nonnull align 8 dereferenceable(80) %1, i64 %2) #9
  %4 = getelementptr inbounds i8, ptr %1, i64 8
  %.val = load i64, ptr %4, align 8
  %5 = getelementptr inbounds i8, ptr %1, i64 48
  %.val7 = load i8, ptr %5, align 8
  %6 = tail call noundef zeroext i1 @_ZN11XBarrierSet14barrier_neededEm9BasicType(i64 noundef %.val, i8 noundef zeroext %.val7) #9
  br i1 %6, label %7, label %8

7:                                                ; preds = %3
  tail call void @_ZNK13XBarrierSetC112load_barrierER9LIRAccess7LIR_Opr(ptr noundef nonnull align 8 dereferenceable(24) %0, ptr noundef nonnull align 8 dereferenceable(80) %1, i64 %2)
  br label %8

8:                                                ; preds = %7, %3
  ret void
}